; ModuleID = '23/103.c'
source_filename = "23/103.c"
target datalayout = "e-m:e-p270:32:32-p271:32:32-p272:64:64-i64:64-f80:128-n8:16:32:64-S128"
target triple = "x86_64-pc-linux-gnu"

@.str = private unnamed_addr constant [3 x i8] c"%c\00", align 1
@.str.1 = private unnamed_addr constant [2 x i8] c" \00", align 1

; Function Attrs: noinline nounwind uwtable
define dso_local void @main() #0 {
  %1 = alloca [10000 x i8], align 16
  %2 = alloca i32, align 4
  %3 = alloca i32, align 4
  %4 = alloca i32, align 4
  %5 = alloca i32, align 4
  %6 = alloca [100 x i32], align 16
  %7 = alloca [10000 x i32], align 16
  store i32 0, i32* %2, align 4
  store i32 0, i32* %3, align 4
  %8 = getelementptr inbounds [10000 x i8], [10000 x i8]* %1, i64 0, i64 0
  %9 = call i32 (i8*, ...) bitcast (i32 (...)* @gets to i32 (i8*, ...)*)(i8* %8)
  store i32 0, i32* %4, align 4
  br label %10

10:                                               ; preds = %45, %0
  %11 = load i32, i32* %4, align 4
  %12 = sext i32 %11 to i64
  %13 = getelementptr inbounds [10000 x i8], [10000 x i8]* %1, i64 0, i64 0
  %14 = call i64 @strlen(i8* %13) #3
  %15 = icmp ult i64 %12, %14
  br i1 %15, label %16, label %48

16:                                               ; preds = %10
  %17 = load i32, i32* %4, align 4
  %18 = sext i32 %17 to i64
  %19 = getelementptr inbounds [10000 x i8], [10000 x i8]* %1, i64 0, i64 %18
  %20 = load i8, i8* %19, align 1
  %21 = sext i8 %20 to i32
  %22 = icmp ne i32 %21, 32
  br i1 %22, label %23, label %43

23:                                               ; preds = %16
  %24 = load i32, i32* %3, align 4
  %25 = icmp eq i32 %24, 0
  br i1 %25, label %26, label %36

26:                                               ; preds = %23
  store i32 1, i32* %3, align 4
  %27 = load i32, i32* %2, align 4
  %28 = add nsw i32 %27, 1
  store i32 %28, i32* %2, align 4
  %29 = load i32, i32* %2, align 4
  %30 = sext i32 %29 to i64
  %31 = getelementptr inbounds [100 x i32], [100 x i32]* %6, i64 0, i64 %30
  store i32 1, i32* %31, align 4
  %32 = load i32, i32* %4, align 4
  %33 = load i32, i32* %2, align 4
  %34 = sext i32 %33 to i64
  %35 = getelementptr inbounds [10000 x i32], [10000 x i32]* %7, i64 0, i64 %34
  store i32 %32, i32* %35, align 4
  br label %42

36:                                               ; preds = %23
  %37 = load i32, i32* %2, align 4
  %38 = sext i32 %37 to i64
  %39 = getelementptr inbounds [100 x i32], [100 x i32]* %6, i64 0, i64 %38
  %40 = load i32, i32* %39, align 4
  %41 = add nsw i32 %40, 1
  store i32 %41, i32* %39, align 4
  br label %42

42:                                               ; preds = %36, %26
  br label %44

43:                                               ; preds = %16
  store i32 0, i32* %3, align 4
  br label %44

44:                                               ; preds = %43, %42
  br label %45

45:                                               ; preds = %44
  %46 = load i32, i32* %4, align 4
  %47 = add nsw i32 %46, 1
  store i32 %47, i32* %4, align 4
  br label %10

48:                                               ; preds = %10
  %49 = load i32, i32* %2, align 4
  store i32 %49, i32* %4, align 4
  br label %50

50:                                               ; preds = %82, %48
  %51 = load i32, i32* %4, align 4
  %52 = icmp sge i32 %51, 1
  br i1 %52, label %53, label %85

53:                                               ; preds = %50
  store i32 0, i32* %5, align 4
  br label %54

54:                                               ; preds = %73, %53
  %55 = load i32, i32* %5, align 4
  %56 = load i32, i32* %4, align 4
  %57 = sext i32 %56 to i64
  %58 = getelementptr inbounds [100 x i32], [100 x i32]* %6, i64 0, i64 %57
  %59 = load i32, i32* %58, align 4
  %60 = icmp slt i32 %55, %59
  br i1 %60, label %61, label %76

61:                                               ; preds = %54
  %62 = load i32, i32* %4, align 4
  %63 = sext i32 %62 to i64
  %64 = getelementptr inbounds [10000 x i32], [10000 x i32]* %7, i64 0, i64 %63
  %65 = load i32, i32* %64, align 4
  %66 = load i32, i32* %5, align 4
  %67 = add nsw i32 %65, %66
  %68 = sext i32 %67 to i64
  %69 = getelementptr inbounds [10000 x i8], [10000 x i8]* %1, i64 0, i64 %68
  %70 = load i8, i8* %69, align 1
  %71 = sext i8 %70 to i32
  %72 = call i32 (i8*, ...) @printf(i8* getelementptr inbounds ([3 x i8], [3 x i8]* @.str, i64 0, i64 0), i32 %71)
  br label %73

73:                                               ; preds = %61
  %74 = load i32, i32* %5, align 4
  %75 = add nsw i32 %74, 1
  store i32 %75, i32* %5, align 4
  br label %54

76:                                               ; preds = %54
  %77 = load i32, i32* %4, align 4
  %78 = icmp sgt i32 %77, 1
  br i1 %78, label %79, label %81

79:                                               ; preds = %76
  %80 = call i32 (i8*, ...) @printf(i8* getelementptr inbounds ([2 x i8], [2 x i8]* @.str.1, i64 0, i64 0))
  br label %81

81:                                               ; preds = %79, %76
  br label %82

82:                                               ; preds = %81
  %83 = load i32, i32* %4, align 4
  %84 = add nsw i32 %83, -1
  store i32 %84, i32* %4, align 4
  br label %50

85:                                               ; preds = %50
  ret void
}

declare dso_local i32 @gets(...) #1

; Function Attrs: nounwind readonly
declare dso_local i64 @strlen(i8*) #2

declare dso_local i32 @printf(i8*, ...) #1


!llvm.module.flags = !{!0}
!llvm.ident = !{!1}

!0 = !{i32 1, !"wchar_size", i32 4}
!1 = !{!"clang version 10.0.0-4ubuntu1 "}
